target datalayout = "e-m:e-p270:32:32-p271:32:32-p272:64:64-i64:64-i128:128-f80:128-n8:16:32:64-S128"
target triple = "x86_64-pc-linux-gnu"

%struct.AVFilterContext = type { ptr, ptr, ptr, ptr, ptr, i32, ptr, ptr, i32, ptr, ptr, i32, i32, ptr, ptr, ptr, ptr, i32, ptr, i32, i32 }
%struct.GBlurContext = type { ptr, float, float, i32, i32, i32, i32, i32, [4 x i32], [4 x i32], ptr, ptr, float, float, float, float, float, float, i32, ptr, ptr, ptr }
%struct.ThreadData = type { i32, i32 }

; Function Attrs: nounwind uwtable
define internal i32 @filter_horizontally(ptr noundef %0, ptr noundef %1, i32 noundef %2, i32 noundef %3) #2 {
  %5 = alloca ptr, align 8
  %6 = alloca ptr, align 8
  %7 = alloca i32, align 4
  %8 = alloca i32, align 4
  %9 = alloca ptr, align 8
  %10 = alloca ptr, align 8
  %11 = alloca i32, align 4
  %12 = alloca i32, align 4
  %13 = alloca i32, align 4
  %14 = alloca i32, align 4
  %15 = alloca float, align 4
  %16 = alloca i32, align 4
  %17 = alloca float, align 4
  %18 = alloca ptr, align 8
  %19 = alloca ptr, align 8
  store ptr %0, ptr %5, align 8, !tbaa !4
  store ptr %1, ptr %6, align 8, !tbaa !84
  store i32 %2, ptr %7, align 4, !tbaa !45
  store i32 %3, ptr %8, align 4, !tbaa !45
  call void @llvm.lifetime.start.p0(i64 8, ptr %9) #8
  %20 = load ptr, ptr %5, align 8, !tbaa !4
  %21 = getelementptr inbounds nuw %struct.AVFilterContext, ptr %20, i32 0, i32 9
  %22 = load ptr, ptr %21, align 8, !tbaa !9
  store ptr %22, ptr %9, align 8, !tbaa !22
  call void @llvm.lifetime.start.p0(i64 8, ptr %10) #8
  %23 = load ptr, ptr %6, align 8, !tbaa !84
  store ptr %23, ptr %10, align 8, !tbaa !85
  call void @llvm.lifetime.start.p0(i64 4, ptr %11) #8
  %24 = load ptr, ptr %10, align 8, !tbaa !85
  %25 = getelementptr inbounds nuw %struct.ThreadData, ptr %24, i32 0, i32 0
  %26 = load i32, ptr %25, align 4, !tbaa !83
  store i32 %26, ptr %11, align 4, !tbaa !45
  call void @llvm.lifetime.start.p0(i64 4, ptr %12) #8
  %27 = load ptr, ptr %10, align 8, !tbaa !85
  %28 = getelementptr inbounds nuw %struct.ThreadData, ptr %27, i32 0, i32 1
  %29 = load i32, ptr %28, align 4, !tbaa !81
  store i32 %29, ptr %12, align 4, !tbaa !45
  call void @llvm.lifetime.start.p0(i64 4, ptr %13) #8
  %30 = load i32, ptr %11, align 4, !tbaa !45
  %31 = load i32, ptr %7, align 4, !tbaa !45
  %32 = mul nsw i32 %30, %31
  %33 = load i32, ptr %8, align 4, !tbaa !45
  %34 = sdiv i32 %32, %33
  store i32 %34, ptr %13, align 4, !tbaa !45
  call void @llvm.lifetime.start.p0(i64 4, ptr %14) #8
  %35 = load i32, ptr %11, align 4, !tbaa !45
  %36 = load i32, ptr %7, align 4, !tbaa !45
  %37 = add nsw i32 %36, 1
  %38 = mul nsw i32 %35, %37
  %39 = load i32, ptr %8, align 4, !tbaa !45
  %40 = sdiv i32 %38, %39
  store i32 %40, ptr %14, align 4, !tbaa !45
  call void @llvm.lifetime.start.p0(i64 4, ptr %15) #8
  %41 = load ptr, ptr %9, align 8, !tbaa !22
  %42 = getelementptr inbounds nuw %struct.GBlurContext, ptr %41, i32 0, i32 12
  %43 = load float, ptr %42, align 8, !tbaa !87
  store float %43, ptr %15, align 4, !tbaa !56
  call void @llvm.lifetime.start.p0(i64 4, ptr %16) #8
  %44 = load ptr, ptr %9, align 8, !tbaa !22
  %45 = getelementptr inbounds nuw %struct.GBlurContext, ptr %44, i32 0, i32 3
  %46 = load i32, ptr %45, align 8, !tbaa !41
  store i32 %46, ptr %16, align 4, !tbaa !45
  call void @llvm.lifetime.start.p0(i64 4, ptr %17) #8
  %47 = load ptr, ptr %9, align 8, !tbaa !22
  %48 = getelementptr inbounds nuw %struct.GBlurContext, ptr %47, i32 0, i32 16
  %49 = load float, ptr %48, align 8, !tbaa !88
  store float %49, ptr %17, align 4, !tbaa !56
  call void @llvm.lifetime.start.p0(i64 8, ptr %18) #8
  %50 = load ptr, ptr %9, align 8, !tbaa !22
  %51 = getelementptr inbounds nuw %struct.GBlurContext, ptr %50, i32 0, i32 10
  %52 = load ptr, ptr %51, align 8, !tbaa !47
  store ptr %52, ptr %18, align 8, !tbaa !48
  call void @llvm.lifetime.start.p0(i64 8, ptr %19) #8
  store ptr null, ptr %19, align 8, !tbaa !48
  %53 = load ptr, ptr %9, align 8, !tbaa !22
  %54 = getelementptr inbounds nuw %struct.GBlurContext, ptr %53, i32 0, i32 11
  %55 = load ptr, ptr %54, align 8, !tbaa !89
  %56 = icmp ne ptr %55, null
  br i1 %56, label %57, label %70

57:                                               ; preds = %4
  %58 = load ptr, ptr %9, align 8, !tbaa !22
  %59 = getelementptr inbounds nuw %struct.GBlurContext, ptr %58, i32 0, i32 11
  %60 = load ptr, ptr %59, align 8, !tbaa !89
  %61 = load ptr, ptr %9, align 8, !tbaa !22
  %62 = getelementptr inbounds nuw %struct.GBlurContext, ptr %61, i32 0, i32 7
  %63 = load i32, ptr %62, align 8, !tbaa !90
  %64 = load i32, ptr %12, align 4, !tbaa !45
  %65 = mul nsw i32 %63, %64
  %66 = load i32, ptr %13, align 4, !tbaa !45
  %67 = mul nsw i32 %65, %66
  %68 = sext i32 %67 to i64
  %69 = getelementptr inbounds float, ptr %60, i64 %68
  store ptr %69, ptr %19, align 8, !tbaa !48
  br label %70

70:                                               ; preds = %57, %4
  %71 = load ptr, ptr %9, align 8, !tbaa !22
  %72 = getelementptr inbounds nuw %struct.GBlurContext, ptr %71, i32 0, i32 19
  %73 = load ptr, ptr %72, align 8, !tbaa !91
  %74 = load ptr, ptr %18, align 8, !tbaa !48
  %75 = load i32, ptr %12, align 4, !tbaa !45
  %76 = load i32, ptr %13, align 4, !tbaa !45
  %77 = mul nsw i32 %75, %76
  %78 = sext i32 %77 to i64
  %79 = getelementptr inbounds float, ptr %74, i64 %78
  %80 = load i32, ptr %12, align 4, !tbaa !45
  %81 = load i32, ptr %14, align 4, !tbaa !45
  %82 = load i32, ptr %13, align 4, !tbaa !45
  %83 = sub nsw i32 %81, %82
  %84 = load i32, ptr %16, align 4, !tbaa !45
  %85 = load float, ptr %17, align 4, !tbaa !56
  %86 = load float, ptr %15, align 4, !tbaa !56
  %87 = load ptr, ptr %19, align 8, !tbaa !48
  call void %73(ptr noundef %79, i32 noundef %80, i32 noundef %83, i32 noundef %84, float noundef %85, float noundef %86, ptr noundef %87)
  call void @llvm.lifetime.end.p0(i64 8, ptr %19) #8
  call void @llvm.lifetime.end.p0(i64 8, ptr %18) #8
  call void @llvm.lifetime.end.p0(i64 4, ptr %17) #8
  call void @llvm.lifetime.end.p0(i64 4, ptr %16) #8
  call void @llvm.lifetime.end.p0(i64 4, ptr %15) #8
  call void @llvm.lifetime.end.p0(i64 4, ptr %14) #8
  call void @llvm.lifetime.end.p0(i64 4, ptr %13) #8
  call void @llvm.lifetime.end.p0(i64 4, ptr %12) #8
  call void @llvm.lifetime.end.p0(i64 4, ptr %11) #8
  call void @llvm.lifetime.end.p0(i64 8, ptr %10) #8
  call void @llvm.lifetime.end.p0(i64 8, ptr %9) #8
  ret i32 0
}