; Function Attrs: nounwind uwtable
define internal noundef i32 @filter_horizontally(ptr noundef readonly captures(none) %0, ptr noundef readonly captures(none) %1, i32 noundef %2, i32 noundef %3) #2 {
  %5 = getelementptr inbounds nuw i8, ptr %0, i64 72
  %6 = load ptr, ptr %5, align 8, !tbaa !4
  %7 = load i32, ptr %1, align 4, !tbaa !60
  %8 = getelementptr inbounds nuw i8, ptr %1, i64 4
  %9 = load i32, ptr %8, align 4, !tbaa !58
  %10 = mul nsw i32 %7, %2
  %11 = sdiv i32 %10, %3
  %12 = getelementptr inbounds nuw i8, ptr %6, i64 88
  %13 = load float, ptr %12, align 8, !tbaa !78
  %14 = getelementptr inbounds nuw i8, ptr %6, i64 16
  %15 = load i32, ptr %14, align 8, !tbaa !38
  %16 = getelementptr inbounds nuw i8, ptr %6, i64 104
  %17 = load float, ptr %16, align 8, !tbaa !79
  %18 = getelementptr inbounds nuw i8, ptr %6, i64 72
  %19 = load ptr, ptr %18, align 8, !tbaa !45
  %20 = getelementptr inbounds nuw i8, ptr %6, i64 80
  %21 = load ptr, ptr %20, align 8, !tbaa !74
  %.not = icmp eq ptr %21, null
  br i1 %.not, label %._crit_edge, label %22

._crit_edge:                                      ; preds = %4
  %.pre = mul nsw i32 %11, %9
  br label %29

22:                                               ; preds = %4
  %23 = getelementptr inbounds nuw i8, ptr %6, i64 32
  %24 = load i32, ptr %23, align 8, !tbaa !80
  %25 = mul i32 %11, %9
  %26 = mul i32 %25, %24
  %27 = sext i32 %26 to i64
  %28 = getelementptr inbounds float, ptr %21, i64 %27
  br label %29

29:                                               ; preds = %._crit_edge, %22
  %.pre-phi = phi i32 [ %.pre, %._crit_edge ], [ %25, %22 ]
  %.0 = phi ptr [ null, %._crit_edge ], [ %28, %22 ]
  %30 = add nsw i32 %2, 1
  %31 = mul nsw i32 %7, %30
  %32 = sdiv i32 %31, %3
  %33 = getelementptr inbounds nuw i8, ptr %6, i64 120
  %34 = load ptr, ptr %33, align 8, !tbaa !75
  %35 = sext i32 %.pre-phi to i64
  %36 = getelementptr inbounds float, ptr %19, i64 %35
  %37 = sub nsw i32 %32, %11
  tail call void %34(ptr noundef %36, i32 noundef %9, i32 noundef %37, i32 noundef %15, float noundef %17, float noundef %13, ptr noundef %.0) #8
  ret i32 0
}